; ModuleID = '40/2970.c'
source_filename = "40/2970.c"
target datalayout = "e-m:e-p270:32:32-p271:32:32-p272:64:64-i64:64-f80:128-n8:16:32:64-S128"
target triple = "x86_64-pc-linux-gnu"

@.str = private unnamed_addr constant [20 x i8] c"%lf %lf %lf %lf %lf\00", align 1
@.str.1 = private unnamed_addr constant [14 x i8] c"Invalid input\00", align 1
@.str.2 = private unnamed_addr constant [5 x i8] c"%.4f\00", align 1

; Function Attrs: noinline nounwind uwtable
define dso_local double @area(double %0, double %1, double %2, double %3, double %4) #0 {
  %6 = alloca double, align 8
  %7 = alloca double, align 8
  %8 = alloca double, align 8
  %9 = alloca double, align 8
  %10 = alloca double, align 8
  %11 = alloca double, align 8
  %12 = alloca double, align 8
  %13 = alloca double, align 8
  %14 = alloca double, align 8
  store double %0, double* %7, align 8
  store double %1, double* %8, align 8
  store double %2, double* %9, align 8
  store double %3, double* %10, align 8
  store double %4, double* %11, align 8
  %15 = load double, double* %7, align 8
  %16 = load double, double* %8, align 8
  %17 = fadd double %15, %16
  %18 = load double, double* %9, align 8
  %19 = fadd double %17, %18
  %20 = load double, double* %10, align 8
  %21 = fadd double %19, %20
  %22 = fdiv double %21, 2.000000e+00
  store double %22, double* %12, align 8
  %23 = load double, double* %11, align 8
  %24 = fmul double %23, 0x3FD1C71C71C71C72
  store double %24, double* %11, align 8
  %25 = load double, double* %12, align 8
  %26 = load double, double* %7, align 8
  %27 = fsub double %25, %26
  %28 = load double, double* %12, align 8
  %29 = load double, double* %8, align 8
  %30 = fsub double %28, %29
  %31 = fmul double %27, %30
  %32 = load double, double* %12, align 8
  %33 = load double, double* %9, align 8
  %34 = fsub double %32, %33
  %35 = fmul double %31, %34
  %36 = load double, double* %12, align 8
  %37 = load double, double* %10, align 8
  %38 = fsub double %36, %37
  %39 = fmul double %35, %38
  %40 = load double, double* %7, align 8
  %41 = load double, double* %8, align 8
  %42 = fmul double %40, %41
  %43 = load double, double* %9, align 8
  %44 = fmul double %42, %43
  %45 = load double, double* %10, align 8
  %46 = fmul double %44, %45
  %47 = load double, double* %11, align 8
  %48 = call double @cos(double %47) #3
  %49 = fmul double %46, %48
  %50 = load double, double* %11, align 8
  %51 = call double @cos(double %50) #3
  %52 = fmul double %49, %51
  %53 = fsub double %39, %52
  store double %53, double* %14, align 8
  %54 = load double, double* %14, align 8
  %55 = fcmp olt double %54, 0.000000e+00
  br i1 %55, label %56, label %57

56:                                               ; preds = %5
  store double -1.000000e+00, double* %6, align 8
  br label %61

57:                                               ; preds = %5
  %58 = load double, double* %14, align 8
  %59 = call double @sqrt(double %58) #3
  store double %59, double* %13, align 8
  %60 = load double, double* %13, align 8
  store double %60, double* %6, align 8
  br label %61

61:                                               ; preds = %57, %56
  %62 = load double, double* %6, align 8
  ret double %62
}

; Function Attrs: nounwind
declare dso_local double @cos(double) #1

; Function Attrs: nounwind
declare dso_local double @sqrt(double) #1

; Function Attrs: noinline nounwind uwtable
define dso_local i32 @main() #0 {
  %1 = alloca i32, align 4
  %2 = alloca double, align 8
  %3 = alloca double, align 8
  %4 = alloca double, align 8
  %5 = alloca double, align 8
  %6 = alloca double, align 8
  %7 = alloca double, align 8
  %8 = alloca double, align 8
  store i32 0, i32* %1, align 4
  %9 = call i32 (i8*, ...) @__isoc99_scanf(i8* getelementptr inbounds ([20 x i8], [20 x i8]* @.str, i64 0, i64 0), double* %2, double* %3, double* %4, double* %5, double* %6)
  %10 = load double, double* %2, align 8
  %11 = load double, double* %3, align 8
  %12 = load double, double* %4, align 8
  %13 = load double, double* %5, align 8
  %14 = load double, double* %6, align 8
  %15 = call double @area(double %10, double %11, double %12, double %13, double %14)
  store double %15, double* %8, align 8
  %16 = load double, double* %8, align 8
  %17 = fcmp olt double %16, 0.000000e+00
  br i1 %17, label %18, label %20

18:                                               ; preds = %0
  %19 = call i32 (i8*, ...) @printf(i8* getelementptr inbounds ([14 x i8], [14 x i8]* @.str.1, i64 0, i64 0))
  br label %23

20:                                               ; preds = %0
  %21 = load double, double* %8, align 8
  %22 = call i32 (i8*, ...) @printf(i8* getelementptr inbounds ([5 x i8], [5 x i8]* @.str.2, i64 0, i64 0), double %21)
  br label %23

23:                                               ; preds = %20, %18
  %24 = load i32, i32* %1, align 4
  ret i32 %24
}

declare dso_local i32 @__isoc99_scanf(i8*, ...) #2

declare dso_local i32 @printf(i8*, ...) #2


!llvm.module.flags = !{!0}
!llvm.ident = !{!1}

!0 = !{i32 1, !"wchar_size", i32 4}
!1 = !{!"clang version 10.0.0-4ubuntu1 "}
